target datalayout = "e-m:e-p270:32:32-p271:32:32-p272:64:64-i64:64-i128:128-f80:128-n8:16:32:64-S128"
target triple = "x86_64-pc-linux-gnu"

%class.G1NUMA = type { ptr, i32, ptr, i32, i64, i64, ptr }

; Function Attrs: mustprogress nounwind uwtable
define linkonce_odr hidden noundef i32 @_Z4MAX2IjET_S0_S0_(i32 noundef %0, i32 noundef %1) #1 comdat {
  %3 = alloca i32, align 4
  %4 = alloca i32, align 4
  store i32 %0, ptr %3, align 4
  store i32 %1, ptr %4, align 4
  %5 = load i32, ptr %3, align 4
  %6 = load i32, ptr %4, align 4
  %7 = icmp ugt i32 %5, %6
  br i1 %7, label %8, label %10

8:                                                ; preds = %2
  %9 = load i32, ptr %3, align 4
  br label %12

10:                                               ; preds = %2
  %11 = load i32, ptr %4, align 4
  br label %12

12:                                               ; preds = %10, %8
  %13 = phi i32 [ %9, %8 ], [ %11, %10 ]
  ret i32 %13
}

; Function Attrs: mustprogress nounwind uwtable
define linkonce_odr hidden noundef i32 @_Z12checked_castIjmET_T0_(i64 noundef %0) #1 comdat {
  %2 = alloca i64, align 8
  %3 = alloca i32, align 4
  store i64 %0, ptr %2, align 8
  %4 = load i64, ptr %2, align 8
  %5 = trunc i64 %4 to i32
  store i32 %5, ptr %3, align 4
  %6 = load i32, ptr %3, align 4
  ret i32 %6
}

; Function Attrs: mustprogress nounwind uwtable
define hidden void @_ZN6G1NUMA23initialize_without_numaEv(ptr noundef nonnull align 8 dereferenceable(56) %0) #1 align 2 {
  %2 = alloca ptr, align 8
  store ptr %0, ptr %2, align 8
  %3 = load ptr, ptr %2, align 8
  %4 = getelementptr inbounds %class.G1NUMA, ptr %3, i32 0, i32 3
  store i32 1, ptr %4, align 8
  %5 = getelementptr inbounds %class.G1NUMA, ptr %3, i32 0, i32 3
  %6 = load i32, ptr %5, align 8
  %7 = zext i32 %6 to i64
  %8 = mul i64 %7, 4
  %9 = call noundef ptr @_Z12AllocateHeapm8MEMFLAGSN17AllocFailStrategy13AllocFailEnumE(i64 noundef %8, i8 noundef zeroext 5, i32 noundef 0)
  %10 = getelementptr inbounds %class.G1NUMA, ptr %3, i32 0, i32 2
  store ptr %9, ptr %10, align 8
  %11 = getelementptr inbounds %class.G1NUMA, ptr %3, i32 0, i32 2
  %12 = load ptr, ptr %11, align 8
  %13 = getelementptr inbounds i32, ptr %12, i64 0
  store i32 0, ptr %13, align 4
  %14 = getelementptr inbounds %class.G1NUMA, ptr %3, i32 0, i32 1
  store i32 1, ptr %14, align 8
  %15 = getelementptr inbounds %class.G1NUMA, ptr %3, i32 0, i32 1
  %16 = load i32, ptr %15, align 8
  %17 = zext i32 %16 to i64
  %18 = mul i64 %17, 4
  %19 = call noundef ptr @_Z12AllocateHeapm8MEMFLAGSN17AllocFailStrategy13AllocFailEnumE(i64 noundef %18, i8 noundef zeroext 5, i32 noundef 0)
  %20 = getelementptr inbounds %class.G1NUMA, ptr %3, i32 0, i32 0
  store ptr %19, ptr %20, align 8
  %21 = getelementptr inbounds %class.G1NUMA, ptr %3, i32 0, i32 0
  %22 = load ptr, ptr %21, align 8
  %23 = getelementptr inbounds i32, ptr %22, i64 0
  store i32 0, ptr %23, align 4
  ret void
}

; Function Attrs: mustprogress nounwind uwtable
define hidden void @_ZN6G1NUMA10initializeEb(ptr noundef nonnull align 8 dereferenceable(56) %0, i1 noundef zeroext %1) #1 align 2 {
  %3 = alloca i64, align 8
  %4 = alloca i8, align 1
  %5 = alloca i64, align 8
  %6 = alloca ptr, align 8
  %7 = alloca i8, align 1
  %8 = alloca i64, align 8
  %9 = alloca i32, align 4
  %10 = alloca i32, align 4
  %11 = alloca i32, align 4
  %12 = alloca i32, align 4
  store ptr %0, ptr %6, align 8
  %13 = zext i1 %1 to i8
  store i8 %13, ptr %7, align 1
  %14 = load ptr, ptr %6, align 8
  %15 = load i8, ptr %7, align 1
  %16 = trunc i8 %15 to i1
  br i1 %16, label %18, label %17

17:                                               ; preds = %2
  call void @_ZN6G1NUMA23initialize_without_numaEv(ptr noundef nonnull align 8 dereferenceable(56) %14)
  br label %102

18:                                               ; preds = %2
  %19 = call noundef i64 @_ZN2os19numa_get_groups_numEv()
  store i64 %19, ptr %8, align 8
  %20 = load i64, ptr %8, align 8
  %21 = mul i64 %20, 4
  %22 = call noundef ptr @_Z12AllocateHeapm8MEMFLAGSN17AllocFailStrategy13AllocFailEnumE(i64 noundef %21, i8 noundef zeroext 5, i32 noundef 0)
  %23 = getelementptr inbounds %class.G1NUMA, ptr %14, i32 0, i32 2
  store ptr %22, ptr %23, align 8
  %24 = getelementptr inbounds %class.G1NUMA, ptr %14, i32 0, i32 2
  %25 = load ptr, ptr %24, align 8
  %26 = load i64, ptr %8, align 8
  %27 = call noundef i64 @_ZN2os20numa_get_leaf_groupsEPjm(ptr noundef %25, i64 noundef %26)
  %28 = call noundef i32 @_Z12checked_castIjmET_T0_(i64 noundef %27)
  %29 = getelementptr inbounds %class.G1NUMA, ptr %14, i32 0, i32 3
  store i32 %28, ptr %29, align 8
  store i32 0, ptr %9, align 4
  store i32 0, ptr %10, align 4
  br label %30

30:                                               ; preds = %44, %18
  %31 = load i32, ptr %10, align 4
  %32 = getelementptr inbounds %class.G1NUMA, ptr %14, i32 0, i32 3
  %33 = load i32, ptr %32, align 8
  %34 = icmp ult i32 %31, %33
  br i1 %34, label %35, label %47

35:                                               ; preds = %30
  %36 = load i32, ptr %9, align 4
  %37 = getelementptr inbounds %class.G1NUMA, ptr %14, i32 0, i32 2
  %38 = load ptr, ptr %37, align 8
  %39 = load i32, ptr %10, align 4
  %40 = zext i32 %39 to i64
  %41 = getelementptr inbounds i32, ptr %38, i64 %40
  %42 = load i32, ptr %41, align 4
  %43 = call noundef i32 @_Z4MAX2IjET_S0_S0_(i32 noundef %36, i32 noundef %42)
  store i32 %43, ptr %9, align 4
  br label %44

44:                                               ; preds = %35
  %45 = load i32, ptr %10, align 4
  %46 = add i32 %45, 1
  store i32 %46, ptr %10, align 4
  br label %30, !llvm.loop !6

47:                                               ; preds = %30
  %48 = load i32, ptr %9, align 4
  %49 = add i32 %48, 1
  %50 = getelementptr inbounds %class.G1NUMA, ptr %14, i32 0, i32 1
  store i32 %49, ptr %50, align 8
  %51 = getelementptr inbounds %class.G1NUMA, ptr %14, i32 0, i32 1
  %52 = load i32, ptr %51, align 8
  %53 = zext i32 %52 to i64
  %54 = mul i64 %53, 4
  %55 = call noundef ptr @_Z12AllocateHeapm8MEMFLAGSN17AllocFailStrategy13AllocFailEnumE(i64 noundef %54, i8 noundef zeroext 5, i32 noundef 0)
  %56 = getelementptr inbounds %class.G1NUMA, ptr %14, i32 0, i32 0
  store ptr %55, ptr %56, align 8
  store i32 0, ptr %11, align 4
  br label %57

57:                                               ; preds = %68, %47
  %58 = load i32, ptr %11, align 4
  %59 = getelementptr inbounds %class.G1NUMA, ptr %14, i32 0, i32 1
  %60 = load i32, ptr %59, align 8
  %61 = icmp ult i32 %58, %60
  br i1 %61, label %62, label %71

62:                                               ; preds = %57
  %63 = getelementptr inbounds %class.G1NUMA, ptr %14, i32 0, i32 0
  %64 = load ptr, ptr %63, align 8
  %65 = load i32, ptr %11, align 4
  %66 = zext i32 %65 to i64
  %67 = getelementptr inbounds i32, ptr %64, i64 %66
  store i32 -1, ptr %67, align 4
  br label %68

68:                                               ; preds = %62
  %69 = load i32, ptr %11, align 4
  %70 = add i32 %69, 1
  store i32 %70, ptr %11, align 4
  br label %57, !llvm.loop !8

71:                                               ; preds = %57
  store i32 0, ptr %12, align 4
  br label %72

72:                                               ; preds = %89, %71
  %73 = load i32, ptr %12, align 4
  %74 = getelementptr inbounds %class.G1NUMA, ptr %14, i32 0, i32 3
  %75 = load i32, ptr %74, align 8
  %76 = icmp ult i32 %73, %75
  br i1 %76, label %77, label %92

77:                                               ; preds = %72
  %78 = load i32, ptr %12, align 4
  %79 = getelementptr inbounds %class.G1NUMA, ptr %14, i32 0, i32 0
  %80 = load ptr, ptr %79, align 8
  %81 = getelementptr inbounds %class.G1NUMA, ptr %14, i32 0, i32 2
  %82 = load ptr, ptr %81, align 8
  %83 = load i32, ptr %12, align 4
  %84 = zext i32 %83 to i64
  %85 = getelementptr inbounds i32, ptr %82, i64 %84
  %86 = load i32, ptr %85, align 4
  %87 = zext i32 %86 to i64
  %88 = getelementptr inbounds i32, ptr %80, i64 %87
  store i32 %78, ptr %88, align 4
  br label %89

89:                                               ; preds = %77
  %90 = load i32, ptr %12, align 4
  %91 = add i32 %90, 1
  store i32 %91, ptr %12, align 4
  br label %72, !llvm.loop !9

92:                                               ; preds = %72
  store i64 32, ptr %5, align 8
  %93 = load i64, ptr %5, align 8
  store i64 %93, ptr %3, align 8
  store i8 5, ptr %4, align 1
  %94 = load i64, ptr %3, align 8
  %95 = load i8, ptr %4, align 1
  %96 = call noundef ptr @_Z12AllocateHeapm8MEMFLAGSN17AllocFailStrategy13AllocFailEnumE(i64 noundef %94, i8 noundef zeroext %95, i32 noundef 0) #8
  %97 = getelementptr inbounds %class.G1NUMA, ptr %14, i32 0, i32 2
  %98 = load ptr, ptr %97, align 8
  %99 = getelementptr inbounds %class.G1NUMA, ptr %14, i32 0, i32 3
  %100 = load i32, ptr %99, align 8
  call void @_ZN11G1NUMAStatsC1EPKjj(ptr noundef nonnull align 8 dereferenceable(32) %96, ptr noundef %98, i32 noundef %100)
  %101 = getelementptr inbounds %class.G1NUMA, ptr %14, i32 0, i32 6
  store ptr %96, ptr %101, align 8
  br label %102

102:                                              ; preds = %92, %17
  ret void
}