; Function Attrs: mustprogress nounwind uwtable
define hidden void @_ZN6G1NUMA10initializeEb(ptr nocapture noundef nonnull align 8 dereferenceable(56) %0, i1 noundef zeroext %1) local_unnamed_addr #1 align 2 {
  %3 = getelementptr inbounds i8, ptr %0, i64 16
  br i1 %1, label %9, label %4

4:                                                ; preds = %2
  %5 = getelementptr inbounds i8, ptr %0, i64 24
  store i32 1, ptr %5, align 8
  %6 = tail call noundef ptr @_Z12AllocateHeapm8MEMFLAGSN17AllocFailStrategy13AllocFailEnumE(i64 noundef 4, i8 noundef zeroext 5, i32 noundef 0) #12
  store ptr %6, ptr %3, align 8
  store i32 0, ptr %6, align 4
  %7 = getelementptr inbounds i8, ptr %0, i64 8
  store i32 1, ptr %7, align 8
  %8 = tail call noundef ptr @_Z12AllocateHeapm8MEMFLAGSN17AllocFailStrategy13AllocFailEnumE(i64 noundef 4, i8 noundef zeroext 5, i32 noundef 0) #12
  store ptr %8, ptr %0, align 8
  store i32 0, ptr %8, align 4
  br label %47

9:                                                ; preds = %2
  %10 = tail call noundef i64 @_ZN2os19numa_get_groups_numEv() #12
  %11 = shl i64 %10, 2
  %12 = tail call noundef ptr @_Z12AllocateHeapm8MEMFLAGSN17AllocFailStrategy13AllocFailEnumE(i64 noundef %11, i8 noundef zeroext 5, i32 noundef 0) #12
  store ptr %12, ptr %3, align 8
  %13 = tail call noundef i64 @_ZN2os20numa_get_leaf_groupsEPjm(ptr noundef %12, i64 noundef %10) #12
  %14 = trunc i64 %13 to i32
  %15 = getelementptr inbounds i8, ptr %0, i64 24
  store i32 %14, ptr %15, align 8
  %.not = icmp eq i32 %14, 0
  br i1 %.not, label %._crit_edge, label %.lr.ph

.lr.ph:                                           ; preds = %9
  %16 = load ptr, ptr %3, align 8
  %wide.trip.count = and i64 %13, 4294967295
  br label %17

17:                                               ; preds = %.lr.ph, %17
  %indvars.iv = phi i64 [ 0, %.lr.ph ], [ %indvars.iv.next, %17 ]
  %.02021 = phi i32 [ 0, %.lr.ph ], [ %20, %17 ]
  %18 = getelementptr inbounds i32, ptr %16, i64 %indvars.iv
  %19 = load i32, ptr %18, align 4
  %20 = tail call noundef i32 @llvm.umax.i32(i32 %.02021, i32 %19)
  %indvars.iv.next = add nuw nsw i64 %indvars.iv, 1
  %exitcond.not = icmp eq i64 %indvars.iv.next, %wide.trip.count
  br i1 %exitcond.not, label %._crit_edge.loopexit, label %17, !llvm.loop !6

._crit_edge.loopexit:                             ; preds = %17
  %21 = add i32 %20, 1
  br label %._crit_edge

._crit_edge:                                      ; preds = %._crit_edge.loopexit, %9
  %.020.lcssa = phi i32 [ 1, %9 ], [ %21, %._crit_edge.loopexit ]
  %22 = getelementptr inbounds i8, ptr %0, i64 8
  store i32 %.020.lcssa, ptr %22, align 8
  %23 = zext i32 %.020.lcssa to i64
  %24 = shl nuw nsw i64 %23, 2
  %25 = tail call noundef ptr @_Z12AllocateHeapm8MEMFLAGSN17AllocFailStrategy13AllocFailEnumE(i64 noundef %24, i8 noundef zeroext 5, i32 noundef 0) #12
  store ptr %25, ptr %0, align 8
  %26 = load i32, ptr %22, align 8
  %.not29 = icmp eq i32 %26, 0
  br i1 %.not29, label %.preheader, label %.lr.ph25

.preheader:                                       ; preds = %.lr.ph25, %._crit_edge
  %27 = load i32, ptr %15, align 8
  %.not30 = icmp eq i32 %27, 0
  br i1 %.not30, label %._crit_edge28, label %.lr.ph27

.lr.ph25:                                         ; preds = %._crit_edge, %.lr.ph25
  %indvars.iv32 = phi i64 [ %indvars.iv.next33, %.lr.ph25 ], [ 0, %._crit_edge ]
  %28 = load ptr, ptr %0, align 8
  %29 = getelementptr inbounds i32, ptr %28, i64 %indvars.iv32
  store i32 -1, ptr %29, align 4
  %indvars.iv.next33 = add nuw nsw i64 %indvars.iv32, 1
  %30 = load i32, ptr %22, align 8
  %31 = zext i32 %30 to i64
  %32 = icmp ult i64 %indvars.iv.next33, %31
  br i1 %32, label %.lr.ph25, label %.preheader, !llvm.loop !8

.lr.ph27:                                         ; preds = %.preheader, %.lr.ph27
  %indvars.iv35 = phi i64 [ %indvars.iv.next36, %.lr.ph27 ], [ 0, %.preheader ]
  %33 = load ptr, ptr %0, align 8
  %34 = load ptr, ptr %3, align 8
  %35 = getelementptr inbounds i32, ptr %34, i64 %indvars.iv35
  %36 = load i32, ptr %35, align 4
  %37 = zext i32 %36 to i64
  %38 = getelementptr inbounds i32, ptr %33, i64 %37
  %39 = trunc nuw i64 %indvars.iv35 to i32
  store i32 %39, ptr %38, align 4
  %indvars.iv.next36 = add nuw nsw i64 %indvars.iv35, 1
  %40 = load i32, ptr %15, align 8
  %41 = zext i32 %40 to i64
  %42 = icmp ult i64 %indvars.iv.next36, %41
  br i1 %42, label %.lr.ph27, label %._crit_edge28, !llvm.loop !9

._crit_edge28:                                    ; preds = %.lr.ph27, %.preheader
  %43 = tail call noundef ptr @_Z12AllocateHeapm8MEMFLAGSN17AllocFailStrategy13AllocFailEnumE(i64 noundef 32, i8 noundef zeroext 5, i32 noundef 0) #12
  %44 = load ptr, ptr %3, align 8
  %45 = load i32, ptr %15, align 8
  tail call void @_ZN11G1NUMAStatsC1EPKjj(ptr noundef nonnull align 8 dereferenceable(32) %43, ptr noundef %44, i32 noundef %45) #12
  %46 = getelementptr inbounds i8, ptr %0, i64 48
  store ptr %43, ptr %46, align 8
  br label %47

47:                                               ; preds = %._crit_edge28, %4
  ret void
}